target datalayout = "e-m:e-p270:32:32-p271:32:32-p272:64:64-i64:64-i128:128-f80:128-n8:16:32:64-S128"
target triple = "x86_64-pc-linux-gnu"

%"class.std::ios_base::Init" = type { i8 }
%struct.smt_params_helper = type { ptr, %class.params_ref }
%class.params_ref = type { ptr }
%struct.theory_seq_params = type { i8, i8, i32, i32 }

$_ZN17smt_params_helperC2ERK10params_ref = comdat any

$_ZNK17smt_params_helper15seq_split_w_lenEv = comdat any

$_ZNK17smt_params_helper12seq_validateEv = comdat any

$_ZNK17smt_params_helper17seq_max_unfoldingEv = comdat any

$_ZNK17smt_params_helper17seq_min_unfoldingEv = comdat any

$_ZN17smt_params_helperD2Ev = comdat any

@_ZStL8__ioinit = internal global %"class.std::ios_base::Init" zeroinitializer, align 1
@__dso_handle = external hidden global i8
@.str = private unnamed_addr constant [4 x i8] c"smt\00", align 1
@.str.1 = private unnamed_addr constant [16 x i8] c"seq.split_w_len\00", align 1
@.str.2 = private unnamed_addr constant [13 x i8] c"seq.validate\00", align 1
@.str.3 = private unnamed_addr constant [18 x i8] c"seq.max_unfolding\00", align 1
@.str.4 = private unnamed_addr constant [18 x i8] c"seq.min_unfolding\00", align 1
@llvm.global_ctors = appending global [1 x { i32, ptr, ptr }] [{ i32, ptr, ptr } { i32 65535, ptr @_GLOBAL__sub_I_theory_seq_params.cpp, ptr null }]

; Function Attrs: uwtable
define internal void @__cxx_global_var_init() #0 section ".text.startup" {
  call void @_ZNSt8ios_base4InitC1Ev(ptr noundef nonnull align 1 dereferenceable(1) @_ZStL8__ioinit)
  %1 = call i32 @__cxa_atexit(ptr @_ZNSt8ios_base4InitD1Ev, ptr @_ZStL8__ioinit, ptr @__dso_handle) #3
  ret void
}

declare void @_ZNSt8ios_base4InitC1Ev(ptr noundef nonnull align 1 dereferenceable(1)) unnamed_addr #1

; Function Attrs: nounwind
declare void @_ZNSt8ios_base4InitD1Ev(ptr noundef nonnull align 1 dereferenceable(1)) unnamed_addr #2

; Function Attrs: nounwind
declare i32 @__cxa_atexit(ptr, ptr, ptr) #3

; Function Attrs: mustprogress uwtable
define hidden void @_ZN17theory_seq_params11updt_paramsERK10params_ref(ptr noundef nonnull align 4 dereferenceable(12) %0, ptr noundef nonnull align 8 dereferenceable(8) %1) #4 align 2 personality ptr @__gxx_personality_v0 {
  %3 = alloca ptr, align 8
  %4 = alloca ptr, align 8
  %5 = alloca %struct.smt_params_helper, align 8
  %6 = alloca ptr, align 8
  %7 = alloca i32, align 4
  store ptr %0, ptr %3, align 8, !tbaa !3
  store ptr %1, ptr %4, align 8, !tbaa !8
  %8 = load ptr, ptr %3, align 8
  call void @llvm.lifetime.start.p0(i64 16, ptr %5) #3
  %9 = load ptr, ptr %4, align 8, !tbaa !8
  call void @_ZN17smt_params_helperC2ERK10params_ref(ptr noundef nonnull align 8 dereferenceable(16) %5, ptr noundef nonnull align 8 dereferenceable(8) %9)
  %10 = invoke noundef zeroext i1 @_ZNK17smt_params_helper15seq_split_w_lenEv(ptr noundef nonnull align 8 dereferenceable(16) %5)
          to label %11 unwind label %24

11:                                               ; preds = %2
  %12 = getelementptr inbounds nuw %struct.theory_seq_params, ptr %8, i32 0, i32 0
  %13 = zext i1 %10 to i8
  store i8 %13, ptr %12, align 4, !tbaa !10
  %14 = invoke noundef zeroext i1 @_ZNK17smt_params_helper12seq_validateEv(ptr noundef nonnull align 8 dereferenceable(16) %5)
          to label %15 unwind label %24

15:                                               ; preds = %11
  %16 = getelementptr inbounds nuw %struct.theory_seq_params, ptr %8, i32 0, i32 1
  %17 = zext i1 %14 to i8
  store i8 %17, ptr %16, align 1, !tbaa !14
  %18 = invoke noundef i32 @_ZNK17smt_params_helper17seq_max_unfoldingEv(ptr noundef nonnull align 8 dereferenceable(16) %5)
          to label %19 unwind label %24

19:                                               ; preds = %15
  %20 = getelementptr inbounds nuw %struct.theory_seq_params, ptr %8, i32 0, i32 2
  store i32 %18, ptr %20, align 4, !tbaa !15
  %21 = invoke noundef i32 @_ZNK17smt_params_helper17seq_min_unfoldingEv(ptr noundef nonnull align 8 dereferenceable(16) %5)
          to label %22 unwind label %24

22:                                               ; preds = %19
  %23 = getelementptr inbounds nuw %struct.theory_seq_params, ptr %8, i32 0, i32 3
  store i32 %21, ptr %23, align 4, !tbaa !16
  call void @_ZN17smt_params_helperD2Ev(ptr noundef nonnull align 8 dereferenceable(16) %5) #3
  call void @llvm.lifetime.end.p0(i64 16, ptr %5) #3
  ret void

24:                                               ; preds = %19, %15, %11, %2
  %25 = landingpad { ptr, i32 }
          cleanup
  %26 = extractvalue { ptr, i32 } %25, 0
  store ptr %26, ptr %6, align 8
  %27 = extractvalue { ptr, i32 } %25, 1
  store i32 %27, ptr %7, align 4
  call void @_ZN17smt_params_helperD2Ev(ptr noundef nonnull align 8 dereferenceable(16) %5) #3
  call void @llvm.lifetime.end.p0(i64 16, ptr %5) #3
  br label %28

28:                                               ; preds = %24
  %29 = load ptr, ptr %6, align 8
  %30 = load i32, ptr %7, align 4
  %31 = insertvalue { ptr, i32 } poison, ptr %29, 0
  %32 = insertvalue { ptr, i32 } %31, i32 %30, 1
  resume { ptr, i32 } %32
}

; Function Attrs: nocallback nofree nosync nounwind willreturn memory(argmem: readwrite)
declare void @llvm.lifetime.start.p0(i64 immarg, ptr captures(none)) #5

; Function Attrs: mustprogress uwtable
define linkonce_odr hidden void @_ZN17smt_params_helperC2ERK10params_ref(ptr noundef nonnull align 8 dereferenceable(16) %0, ptr noundef nonnull align 8 dereferenceable(8) %1) unnamed_addr #4 comdat align 2 {
  %3 = alloca ptr, align 8
  %4 = alloca ptr, align 8
  store ptr %0, ptr %3, align 8, !tbaa !17
  store ptr %1, ptr %4, align 8, !tbaa !8
  %5 = load ptr, ptr %3, align 8
  %6 = getelementptr inbounds nuw %struct.smt_params_helper, ptr %5, i32 0, i32 0
  %7 = load ptr, ptr %4, align 8, !tbaa !8
  store ptr %7, ptr %6, align 8, !tbaa !8
  %8 = getelementptr inbounds nuw %struct.smt_params_helper, ptr %5, i32 0, i32 1
  call void @_ZN7gparams10get_moduleEPKc(ptr dead_on_unwind writable sret(%class.params_ref) align 8 %8, ptr noundef @.str)
  ret void
}

; Function Attrs: mustprogress uwtable
define linkonce_odr hidden noundef zeroext i1 @_ZNK17smt_params_helper15seq_split_w_lenEv(ptr noundef nonnull align 8 dereferenceable(16) %0) #4 comdat align 2 {
  %2 = alloca ptr, align 8
  store ptr %0, ptr %2, align 8, !tbaa !17
  %3 = load ptr, ptr %2, align 8
  %4 = getelementptr inbounds nuw %struct.smt_params_helper, ptr %3, i32 0, i32 0
  %5 = load ptr, ptr %4, align 8, !tbaa !19
  %6 = getelementptr inbounds nuw %struct.smt_params_helper, ptr %3, i32 0, i32 1
  %7 = call noundef zeroext i1 @_ZNK10params_ref8get_boolEPKcRKS_b(ptr noundef nonnull align 8 dereferenceable(8) %5, ptr noundef @.str.1, ptr noundef nonnull align 8 dereferenceable(8) %6, i1 noundef zeroext true)
  ret i1 %7
}

declare i32 @__gxx_personality_v0(...)

; Function Attrs: mustprogress uwtable
define linkonce_odr hidden noundef zeroext i1 @_ZNK17smt_params_helper12seq_validateEv(ptr noundef nonnull align 8 dereferenceable(16) %0) #4 comdat align 2 {
  %2 = alloca ptr, align 8
  store ptr %0, ptr %2, align 8, !tbaa !17
  %3 = load ptr, ptr %2, align 8
  %4 = getelementptr inbounds nuw %struct.smt_params_helper, ptr %3, i32 0, i32 0
  %5 = load ptr, ptr %4, align 8, !tbaa !19
  %6 = getelementptr inbounds nuw %struct.smt_params_helper, ptr %3, i32 0, i32 1
  %7 = call noundef zeroext i1 @_ZNK10params_ref8get_boolEPKcRKS_b(ptr noundef nonnull align 8 dereferenceable(8) %5, ptr noundef @.str.2, ptr noundef nonnull align 8 dereferenceable(8) %6, i1 noundef zeroext false)
  ret i1 %7
}

; Function Attrs: mustprogress uwtable
define linkonce_odr hidden noundef i32 @_ZNK17smt_params_helper17seq_max_unfoldingEv(ptr noundef nonnull align 8 dereferenceable(16) %0) #4 comdat align 2 {
  %2 = alloca ptr, align 8
  store ptr %0, ptr %2, align 8, !tbaa !17
  %3 = load ptr, ptr %2, align 8
  %4 = getelementptr inbounds nuw %struct.smt_params_helper, ptr %3, i32 0, i32 0
  %5 = load ptr, ptr %4, align 8, !tbaa !19
  %6 = getelementptr inbounds nuw %struct.smt_params_helper, ptr %3, i32 0, i32 1
  %7 = call noundef i32 @_ZNK10params_ref8get_uintEPKcRKS_j(ptr noundef nonnull align 8 dereferenceable(8) %5, ptr noundef @.str.3, ptr noundef nonnull align 8 dereferenceable(8) %6, i32 noundef 1000000000)
  ret i32 %7
}

; Function Attrs: mustprogress uwtable
define linkonce_odr hidden noundef i32 @_ZNK17smt_params_helper17seq_min_unfoldingEv(ptr noundef nonnull align 8 dereferenceable(16) %0) #4 comdat align 2 {
  %2 = alloca ptr, align 8
  store ptr %0, ptr %2, align 8, !tbaa !17
  %3 = load ptr, ptr %2, align 8
  %4 = getelementptr inbounds nuw %struct.smt_params_helper, ptr %3, i32 0, i32 0
  %5 = load ptr, ptr %4, align 8, !tbaa !19
  %6 = getelementptr inbounds nuw %struct.smt_params_helper, ptr %3, i32 0, i32 1
  %7 = call noundef i32 @_ZNK10params_ref8get_uintEPKcRKS_j(ptr noundef nonnull align 8 dereferenceable(8) %5, ptr noundef @.str.4, ptr noundef nonnull align 8 dereferenceable(8) %6, i32 noundef 1)
  ret i32 %7
}

; Function Attrs: inlinehint mustprogress nounwind uwtable
define linkonce_odr hidden void @_ZN17smt_params_helperD2Ev(ptr noundef nonnull align 8 dereferenceable(16) %0) unnamed_addr #6 comdat align 2 {
  %2 = alloca ptr, align 8
  store ptr %0, ptr %2, align 8, !tbaa !17
  %3 = load ptr, ptr %2, align 8
  %4 = getelementptr inbounds nuw %struct.smt_params_helper, ptr %3, i32 0, i32 1
  call void @_ZN10params_refD1Ev(ptr noundef nonnull align 8 dereferenceable(8) %4) #3
  ret void
}

; Function Attrs: nocallback nofree nosync nounwind willreturn memory(argmem: readwrite)
declare void @llvm.lifetime.end.p0(i64 immarg, ptr captures(none)) #5

declare void @_ZN7gparams10get_moduleEPKc(ptr dead_on_unwind writable sret(%class.params_ref) align 8, ptr noundef) #1

declare noundef zeroext i1 @_ZNK10params_ref8get_boolEPKcRKS_b(ptr noundef nonnull align 8 dereferenceable(8), ptr noundef, ptr noundef nonnull align 8 dereferenceable(8), i1 noundef zeroext) #1

declare noundef i32 @_ZNK10params_ref8get_uintEPKcRKS_j(ptr noundef nonnull align 8 dereferenceable(8), ptr noundef, ptr noundef nonnull align 8 dereferenceable(8), i32 noundef) #1

; Function Attrs: nounwind
declare void @_ZN10params_refD1Ev(ptr noundef nonnull align 8 dereferenceable(8)) unnamed_addr #2

; Function Attrs: uwtable
define internal void @_GLOBAL__sub_I_theory_seq_params.cpp() #0 section ".text.startup" {
  call void @__cxx_global_var_init()
  ret void
}


!llvm.linker.options = !{}
!llvm.module.flags = !{!0, !1, !2}

!0 = !{i32 1, !"wchar_size", i32 4}
!1 = !{i32 8, !"PIC Level", i32 2}
!2 = !{i32 7, !"uwtable", i32 2}
!3 = !{!4, !4, i64 0}
!4 = !{!"p1 _ZTS17theory_seq_params", !5, i64 0}
!5 = !{!"any pointer", !6, i64 0}
!6 = !{!"omnipotent char", !7, i64 0}
!7 = !{!"Simple C++ TBAA"}
!8 = !{!9, !9, i64 0}
!9 = !{!"p1 _ZTS10params_ref", !5, i64 0}
!10 = !{!11, !12, i64 0}
!11 = !{!"_ZTS17theory_seq_params", !12, i64 0, !12, i64 1, !13, i64 4, !13, i64 8}
!12 = !{!"bool", !6, i64 0}
!13 = !{!"int", !6, i64 0}
!14 = !{!11, !12, i64 1}
!15 = !{!11, !13, i64 4}
!16 = !{!11, !13, i64 8}
!17 = !{!18, !18, i64 0}
!18 = !{!"p1 _ZTS17smt_params_helper", !5, i64 0}
!19 = !{!20, !9, i64 0}
!20 = !{!"_ZTS17smt_params_helper", !9, i64 0, !21, i64 8}
!21 = !{!"_ZTS10params_ref", !22, i64 0}
!22 = !{!"p1 _ZTS6params", !5, i64 0}
